; ModuleID = '54/642.c'
source_filename = "54/642.c"
target datalayout = "e-m:e-p270:32:32-p271:32:32-p272:64:64-i64:64-f80:128-n8:16:32:64-S128"
target triple = "x86_64-pc-linux-gnu"

@.str = private unnamed_addr constant [5 x i8] c"%d%d\00", align 1
@.str.1 = private unnamed_addr constant [3 x i8] c"%d\00", align 1

; Function Attrs: noinline nounwind uwtable
define dso_local i32 @main() #0 {
  %1 = alloca i32, align 4
  %2 = alloca i32, align 4
  %3 = alloca i32, align 4
  %4 = alloca i32, align 4
  %5 = alloca i32, align 4
  %6 = alloca i32, align 4
  %7 = alloca [10 x i32], align 16
  store i32 0, i32* %1, align 4
  store i32 0, i32* %6, align 4
  %8 = bitcast [10 x i32]* %7 to i8*
  call void @llvm.memset.p0i8.i64(i8* align 16 %8, i8 0, i64 40, i1 false)
  %9 = call i32 (i8*, ...) @__isoc99_scanf(i8* getelementptr inbounds ([5 x i8], [5 x i8]* @.str, i64 0, i64 0), i32* %2, i32* %3)
  store i32 1, i32* %5, align 4
  br label %10

10:                                               ; preds = %67, %0
  %11 = load i32, i32* %2, align 4
  %12 = load i32, i32* %5, align 4
  %13 = mul nsw i32 %11, %12
  %14 = load i32, i32* %3, align 4
  %15 = add nsw i32 %13, %14
  %16 = getelementptr inbounds [10 x i32], [10 x i32]* %7, i64 0, i64 0
  store i32 %15, i32* %16, align 16
  store i32 0, i32* %4, align 4
  br label %17

17:                                               ; preds = %59, %10
  %18 = load i32, i32* %4, align 4
  %19 = load i32, i32* %2, align 4
  %20 = sub nsw i32 %19, 1
  %21 = icmp slt i32 %18, %20
  br i1 %21, label %22, label %62

22:                                               ; preds = %17
  %23 = load i32, i32* %4, align 4
  %24 = sext i32 %23 to i64
  %25 = getelementptr inbounds [10 x i32], [10 x i32]* %7, i64 0, i64 %24
  %26 = load i32, i32* %25, align 4
  %27 = load i32, i32* %2, align 4
  %28 = mul nsw i32 %26, %27
  %29 = load i32, i32* %2, align 4
  %30 = sub nsw i32 %29, 1
  %31 = sdiv i32 %28, %30
  %32 = load i32, i32* %3, align 4
  %33 = add nsw i32 %31, %32
  %34 = load i32, i32* %4, align 4
  %35 = add nsw i32 %34, 1
  %36 = sext i32 %35 to i64
  %37 = getelementptr inbounds [10 x i32], [10 x i32]* %7, i64 0, i64 %36
  store i32 %33, i32* %37, align 4
  %38 = load i32, i32* %4, align 4
  %39 = add nsw i32 %38, 1
  %40 = sext i32 %39 to i64
  %41 = getelementptr inbounds [10 x i32], [10 x i32]* %7, i64 0, i64 %40
  %42 = load i32, i32* %41, align 4
  %43 = load i32, i32* %3, align 4
  %44 = sub nsw i32 %42, %43
  %45 = load i32, i32* %2, align 4
  %46 = sub nsw i32 %45, 1
  %47 = mul nsw i32 %44, %46
  %48 = load i32, i32* %2, align 4
  %49 = srem i32 %47, %48
  %50 = icmp ne i32 %49, 0
  br i1 %50, label %51, label %52

51:                                               ; preds = %22
  br label %62

52:                                               ; preds = %22
  %53 = load i32, i32* %4, align 4
  %54 = load i32, i32* %2, align 4
  %55 = sub nsw i32 %54, 2
  %56 = icmp eq i32 %53, %55
  br i1 %56, label %57, label %58

57:                                               ; preds = %52
  store i32 1, i32* %6, align 4
  br label %62

58:                                               ; preds = %52
  br label %59

59:                                               ; preds = %58
  %60 = load i32, i32* %4, align 4
  %61 = add nsw i32 %60, 1
  store i32 %61, i32* %4, align 4
  br label %17

62:                                               ; preds = %57, %51, %17
  %63 = load i32, i32* %6, align 4
  %64 = icmp eq i32 %63, 1
  br i1 %64, label %65, label %66

65:                                               ; preds = %62
  br label %70

66:                                               ; preds = %62
  br label %67

67:                                               ; preds = %66
  %68 = load i32, i32* %5, align 4
  %69 = add nsw i32 %68, 1
  store i32 %69, i32* %5, align 4
  br label %10

70:                                               ; preds = %65
  %71 = load i32, i32* %2, align 4
  %72 = sub nsw i32 %71, 1
  %73 = sext i32 %72 to i64
  %74 = getelementptr inbounds [10 x i32], [10 x i32]* %7, i64 0, i64 %73
  %75 = load i32, i32* %74, align 4
  %76 = call i32 (i8*, ...) @printf(i8* getelementptr inbounds ([3 x i8], [3 x i8]* @.str.1, i64 0, i64 0), i32 %75)
  ret i32 0
}

; Function Attrs: argmemonly nounwind willreturn
declare void @llvm.memset.p0i8.i64(i8* nocapture writeonly, i8, i64, i1 immarg) #1

declare dso_local i32 @__isoc99_scanf(i8*, ...) #2

declare dso_local i32 @printf(i8*, ...) #2


!llvm.module.flags = !{!0}
!llvm.ident = !{!1}

!0 = !{i32 1, !"wchar_size", i32 4}
!1 = !{!"clang version 10.0.0-4ubuntu1 "}
