; ModuleID = 'source-C-CXX/53/642.c'
source_filename = "source-C-CXX/53/642.c"
target datalayout = "e-m:e-p270:32:32-p271:32:32-p272:64:64-i64:64-f80:128-n8:16:32:64-S128"
target triple = "x86_64-pc-linux-gnu"

@.str = private unnamed_addr constant [5 x i8] c"%d%d\00", align 1
@.str.1 = private unnamed_addr constant [3 x i8] c"%d\00", align 1

; Function Attrs: nofree nounwind sspstrong uwtable
define dso_local i32 @main() local_unnamed_addr #0 {
  %1 = alloca i32, align 4
  %2 = alloca i32, align 4
  %3 = alloca [10 x i32], align 16
  %4 = bitcast i32* %1 to i8*
  call void @llvm.lifetime.start.p0i8(i64 4, i8* nonnull %4) #5
  %5 = bitcast i32* %2 to i8*
  call void @llvm.lifetime.start.p0i8(i64 4, i8* nonnull %5) #5
  %6 = bitcast [10 x i32]* %3 to i8*
  call void @llvm.lifetime.start.p0i8(i64 40, i8* nonnull %6) #5
  call void @llvm.memset.p0i8.i64(i8* noundef nonnull align 16 dereferenceable(40) %6, i8 0, i64 40, i1 false)
  %7 = call i32 (i8*, ...) @__isoc99_scanf(i8* getelementptr inbounds ([5 x i8], [5 x i8]* @.str, i64 0, i64 0), i32* nonnull %1, i32* nonnull %2)
  %8 = load i32, i32* %1, align 4, !tbaa !5
  %9 = load i32, i32* %2, align 4, !tbaa !5
  %10 = add i32 %8, -1
  %11 = add nsw i32 %8, -2
  %12 = zext i32 %11 to i64
  %13 = call i32 @llvm.smax.i32(i32 %10, i32 0)
  %14 = zext i32 %13 to i64
  br label %15

15:                                               ; preds = %34, %0
  %16 = phi i32 [ 1, %0 ], [ %35, %34 ]
  %17 = mul nsw i32 %8, %16
  %18 = add nsw i32 %17, %9
  br label %19

19:                                               ; preds = %32, %15
  %20 = phi i32 [ %26, %32 ], [ %18, %15 ]
  %21 = phi i64 [ %27, %32 ], [ 0, %15 ]
  %22 = icmp eq i64 %21, %14
  br i1 %22, label %34, label %23

23:                                               ; preds = %19
  %24 = mul nsw i32 %20, %8
  %25 = sdiv i32 %24, %10
  %26 = add nsw i32 %25, %9
  %27 = add nuw nsw i64 %21, 1
  %28 = getelementptr inbounds [10 x i32], [10 x i32]* %3, i64 0, i64 %27
  store i32 %26, i32* %28, align 4, !tbaa !5
  %29 = mul nsw i32 %25, %10
  %30 = srem i32 %29, %8
  %31 = icmp eq i32 %30, 0
  br i1 %31, label %32, label %34

32:                                               ; preds = %23
  %33 = icmp eq i64 %21, %12
  br i1 %33, label %36, label %19, !llvm.loop !9

34:                                               ; preds = %19, %23
  %35 = add nuw nsw i32 %16, 1
  br label %15

36:                                               ; preds = %32
  %37 = getelementptr inbounds [10 x i32], [10 x i32]* %3, i64 0, i64 0
  store i32 %18, i32* %37, align 16, !tbaa !5
  %38 = sext i32 %10 to i64
  %39 = getelementptr inbounds [10 x i32], [10 x i32]* %3, i64 0, i64 %38
  %40 = load i32, i32* %39, align 4, !tbaa !5
  %41 = call i32 (i8*, ...) @printf(i8* nonnull dereferenceable(1) getelementptr inbounds ([3 x i8], [3 x i8]* @.str.1, i64 0, i64 0), i32 %40)
  call void @llvm.lifetime.end.p0i8(i64 40, i8* nonnull %6) #5
  call void @llvm.lifetime.end.p0i8(i64 4, i8* nonnull %5) #5
  call void @llvm.lifetime.end.p0i8(i64 4, i8* nonnull %4) #5
  ret i32 0
}

; Function Attrs: argmemonly mustprogress nofree nosync nounwind willreturn
declare void @llvm.lifetime.start.p0i8(i64 immarg, i8* nocapture) #1

; Function Attrs: argmemonly mustprogress nofree nounwind willreturn writeonly
declare void @llvm.memset.p0i8.i64(i8* nocapture writeonly, i8, i64, i1 immarg) #2

; Function Attrs: nofree nounwind
declare noundef i32 @__isoc99_scanf(i8* nocapture noundef readonly, ...) local_unnamed_addr #3

; Function Attrs: nofree nounwind
declare noundef i32 @printf(i8* nocapture noundef readonly, ...) local_unnamed_addr #3

; Function Attrs: argmemonly mustprogress nofree nosync nounwind willreturn
declare void @llvm.lifetime.end.p0i8(i64 immarg, i8* nocapture) #1

; Function Attrs: nofree nosync nounwind readnone speculatable willreturn
declare i32 @llvm.smax.i32(i32, i32) #4


!llvm.module.flags = !{!0, !1, !2, !3}
!llvm.ident = !{!4}

!0 = !{i32 1, !"wchar_size", i32 4}
!1 = !{i32 7, !"PIC Level", i32 2}
!2 = !{i32 7, !"PIE Level", i32 2}
!3 = !{i32 7, !"uwtable", i32 1}
!4 = !{!"clang version 13.0.0"}
!5 = !{!6, !6, i64 0}
!6 = !{!"int", !7, i64 0}
!7 = !{!"omnipotent char", !8, i64 0}
!8 = !{!"Simple C/C++ TBAA"}
!9 = distinct !{!9, !10}
!10 = !{!"llvm.loop.mustprogress"}
